target datalayout = "e-m:e-p270:32:32-p271:32:32-p272:64:64-i64:64-i128:128-f80:128-n8:16:32:64-S128"
target triple = "x86_64-pc-linux-gnu"

%class.hwf = type { double }

; Function Attrs: mustprogress nounwind uwtable
define hidden void @_ZN11hwf_manager3setER3hwfbmi(ptr noundef nonnull align 8 dereferenceable(736) %0, ptr noundef nonnull align 8 dereferenceable(8) %1, i1 noundef zeroext %2, i64 noundef %3, i32 noundef %4) #5 align 2 {
  %6 = alloca ptr, align 8
  %7 = alloca ptr, align 8
  %8 = alloca i8, align 1
  %9 = alloca i64, align 8
  %10 = alloca i32, align 4
  %11 = alloca i64, align 8
  store ptr %0, ptr %6, align 8, !tbaa !3
  store ptr %1, ptr %7, align 8, !tbaa !16
  %12 = zext i1 %2 to i8
  store i8 %12, ptr %8, align 1, !tbaa !52
  store i64 %3, ptr %9, align 8, !tbaa !14
  store i32 %4, ptr %10, align 4, !tbaa !18
  call void @llvm.lifetime.start.p0(i64 8, ptr %11) #3
  %13 = load i8, ptr %8, align 1, !tbaa !52, !range !54, !noundef !55
  %14 = trunc i8 %13 to i1
  %15 = select i1 %14, i64 -9223372036854775808, i64 0
  store i64 %15, ptr %11, align 8, !tbaa !14
  %16 = load i32, ptr %10, align 4, !tbaa !18
  %17 = sext i32 %16 to i64
  %18 = add i64 %17, 1023
  %19 = shl i64 %18, 52
  %20 = load i64, ptr %11, align 8, !tbaa !14
  %21 = or i64 %20, %19
  store i64 %21, ptr %11, align 8, !tbaa !14
  %22 = load i64, ptr %9, align 8, !tbaa !14
  %23 = load i64, ptr %11, align 8, !tbaa !14
  %24 = or i64 %23, %22
  store i64 %24, ptr %11, align 8, !tbaa !14
  %25 = load ptr, ptr %7, align 8, !tbaa !16
  %26 = getelementptr inbounds nuw %class.hwf, ptr %25, i32 0, i32 0
  call void @llvm.memcpy.p0.p0.i64(ptr align 8 %26, ptr align 8 %11, i64 8, i1 false)
  call void @llvm.lifetime.end.p0(i64 8, ptr %11) #3
  ret void
}