; Function Attrs: mustprogress nofree norecurse nosync nounwind willreturn memory(argmem: write) uwtable
define hidden void @_ZN11hwf_manager3setER3hwfbmi(ptr noundef nonnull readnone align 8 captures(none) dereferenceable(736) %0, ptr noundef nonnull writeonly align 8 captures(none) dereferenceable(8) initializes((0, 8)) %1, i1 noundef zeroext %2, i64 noundef %3, i32 noundef %4) local_unnamed_addr #7 align 2 {
  %6 = select i1 %2, i64 -9223372036854775808, i64 0
  %7 = zext i32 %4 to i64
  %8 = shl i64 %7, 52
  %9 = add i64 %8, 4607182418800017408
  %10 = or i64 %3, %6
  %11 = or i64 %10, %9
  store i64 %11, ptr %1, align 8
  ret void
}